; Function Attrs: mustprogress uwtable
define void @_ZN8facebook5velox10expression9calculate6Parser7yypush_EPKcaONS3_11symbol_typeE(ptr noundef nonnull align 8 dereferenceable(40) %this, ptr nocapture noundef readnone %m, i8 noundef signext %s, ptr noundef nonnull align 16 dereferenceable(48) %sym) local_unnamed_addr #9 align 2 personality ptr @__gxx_personality_v0 {
entry:
  %ref.tmp = alloca %"struct.facebook::velox::expression::calculate::Parser::stack_symbol_type", align 16
  call void @_ZN8facebook5velox10expression9calculate6Parser17stack_symbol_typeC1EaONS3_11symbol_typeE(ptr noundef nonnull align 16 dereferenceable(48) %ref.tmp, i8 noundef signext %s, ptr noundef nonnull align 16 dereferenceable(48) %sym)
  %yystack_.i = getelementptr inbounds i8, ptr %this, i64 8
  invoke void @_ZN8facebook5velox10expression9calculate6Parser5stackINS3_17stack_symbol_typeESt6vectorIS5_SaIS5_EEE4pushEOS5_(ptr noundef nonnull align 8 dereferenceable(24) %yystack_.i, ptr noundef nonnull align 16 dereferenceable(48) %ref.tmp)
          to label %invoke.cont unwind label %lpad

invoke.cont:                                      ; preds = %entry
  %0 = load i8, ptr %ref.tmp, align 16
  %cmp.i.i.i.i = icmp eq i8 %0, 0
  br i1 %cmp.i.i.i.i, label %_ZN8facebook5velox10expression9calculate6Parser17stack_symbol_typeD2Ev.exit, label %_ZNK8facebook5velox10expression9calculate6Parser8by_state4kindEv.exit.i.i.i

_ZNK8facebook5velox10expression9calculate6Parser8by_state4kindEv.exit.i.i.i: ; preds = %invoke.cont
  %idxprom.i.i.i.i = sext i8 %0 to i64
  %arrayidx.i.i.i.i = getelementptr inbounds [0 x i8], ptr @_ZN8facebook5velox10expression9calculate6Parser7yystos_E, i64 0, i64 %idxprom.i.i.i.i
  %1 = load i8, ptr %arrayidx.i.i.i.i, align 1
  %cond.i.i.i = icmp eq i8 %1, 11
  br i1 %cond.i.i.i, label %sw.bb2.i.i.i, label %_ZN8facebook5velox10expression9calculate6Parser17stack_symbol_typeD2Ev.exit

sw.bb2.i.i.i:                                     ; preds = %_ZNK8facebook5velox10expression9calculate6Parser8by_state4kindEv.exit.i.i.i
  %value3.i.i.i = getelementptr inbounds i8, ptr %ref.tmp, i64 16
  call void @_ZNSt7__cxx1112basic_stringIcSt11char_traitsIcESaIcEED1Ev(ptr noundef nonnull align 8 dereferenceable(32) %value3.i.i.i) #25
  br label %_ZN8facebook5velox10expression9calculate6Parser17stack_symbol_typeD2Ev.exit

_ZN8facebook5velox10expression9calculate6Parser17stack_symbol_typeD2Ev.exit: ; preds = %invoke.cont, %_ZNK8facebook5velox10expression9calculate6Parser8by_state4kindEv.exit.i.i.i, %sw.bb2.i.i.i
  ret void

lpad:                                             ; preds = %entry
  %2 = landingpad { ptr, i32 }
          cleanup
  %3 = load i8, ptr %ref.tmp, align 16
  %cmp.i.i.i.i1 = icmp eq i8 %3, 0
  br i1 %cmp.i.i.i.i1, label %_ZN8facebook5velox10expression9calculate6Parser17stack_symbol_typeD2Ev.exit8, label %_ZNK8facebook5velox10expression9calculate6Parser8by_state4kindEv.exit.i.i.i2

_ZNK8facebook5velox10expression9calculate6Parser8by_state4kindEv.exit.i.i.i2: ; preds = %lpad
  %idxprom.i.i.i.i3 = sext i8 %3 to i64
  %arrayidx.i.i.i.i4 = getelementptr inbounds [0 x i8], ptr @_ZN8facebook5velox10expression9calculate6Parser7yystos_E, i64 0, i64 %idxprom.i.i.i.i3
  %4 = load i8, ptr %arrayidx.i.i.i.i4, align 1
  %cond.i.i.i5 = icmp eq i8 %4, 11
  br i1 %cond.i.i.i5, label %sw.bb2.i.i.i6, label %_ZN8facebook5velox10expression9calculate6Parser17stack_symbol_typeD2Ev.exit8

sw.bb2.i.i.i6:                                    ; preds = %_ZNK8facebook5velox10expression9calculate6Parser8by_state4kindEv.exit.i.i.i2
  %value3.i.i.i7 = getelementptr inbounds i8, ptr %ref.tmp, i64 16
  call void @_ZNSt7__cxx1112basic_stringIcSt11char_traitsIcESaIcEED1Ev(ptr noundef nonnull align 8 dereferenceable(32) %value3.i.i.i7) #25
  br label %_ZN8facebook5velox10expression9calculate6Parser17stack_symbol_typeD2Ev.exit8

_ZN8facebook5velox10expression9calculate6Parser17stack_symbol_typeD2Ev.exit8: ; preds = %lpad, %_ZNK8facebook5velox10expression9calculate6Parser8by_state4kindEv.exit.i.i.i2, %sw.bb2.i.i.i6
  resume { ptr, i32 } %2
}